target datalayout = "e-m:e-p270:32:32-p271:32:32-p272:64:64-i64:64-i128:128-f80:128-n8:16:32:64-S128"
target triple = "x86_64-pc-linux-gnu"

@hf_ulmap_reserved_uint = internal global i32 0, align 4
@hf_ulmap_fast_tracking_extended_uiuc = internal global i32 0, align 4
@hf_ulmap_fast_tracking_length = internal global i32 0, align 4
@hf_ulmap_fast_tracking_map_index = internal global i32 0, align 4
@hf_ulmap_fast_tracking_power_correction = internal global i32 0, align 4
@hf_ulmap_fast_tracking_frequency_correction = internal global i32 0, align 4
@hf_ulmap_fast_tracking_time_correction = internal global i32 0, align 4
@ett_302h = internal global i32 0, align 4
@.str.554 = private unnamed_addr constant [17 x i8] c"Fast_Tracking_IE\00", align 1

; Function Attrs: null_pointer_is_valid sspstrong uwtable
define internal i32 @ULMAP_Fast_Tracking_IE(ptr noundef %0, i32 noundef %1, i32 noundef %2, ptr noundef %3) #1 {
  %5 = alloca ptr, align 8
  %6 = alloca i32, align 4
  %7 = alloca i32, align 4
  %8 = alloca ptr, align 8
  %9 = alloca i32, align 4
  %10 = alloca ptr, align 8
  store ptr %0, ptr %5, align 8
  store i32 %1, ptr %6, align 4
  store i32 %2, ptr %7, align 4
  store ptr %3, ptr %8, align 8
  call void @llvm.lifetime.start.p0(i64 4, ptr %9) #5
  call void @llvm.lifetime.start.p0(i64 8, ptr %10) #5
  %11 = load i32, ptr %6, align 4
  %12 = mul i32 %11, 4
  store i32 %12, ptr %9, align 4
  %13 = load ptr, ptr %5, align 8
  %14 = load ptr, ptr %8, align 8
  %15 = load i32, ptr %6, align 4
  %16 = sdiv i32 %15, 2
  %17 = load i32, ptr %6, align 4
  %18 = and i32 %17, 1
  %19 = add i32 1, %18
  %20 = load i32, ptr %7, align 4
  %21 = add i32 %19, %20
  %22 = sdiv i32 %21, 2
  %23 = load i32, ptr @ett_302h, align 4
  %24 = call ptr @proto_tree_add_subtree(ptr noundef %13, ptr noundef %14, i32 noundef %16, i32 noundef %22, i32 noundef %23, ptr noundef null, ptr noundef @.str.554)
  store ptr %24, ptr %10, align 8
  %25 = load i32, ptr %7, align 4
  %26 = mul i32 %25, 4
  store i32 %26, ptr %7, align 4
  %27 = load ptr, ptr %10, align 8
  %28 = load i32, ptr @hf_ulmap_fast_tracking_extended_uiuc, align 4
  %29 = load ptr, ptr %8, align 8
  %30 = load i32, ptr %9, align 4
  %31 = call ptr @proto_tree_add_bits_item(ptr noundef %27, i32 noundef %28, ptr noundef %29, i32 noundef %30, i32 noundef 4, i32 noundef 0)
  %32 = load i32, ptr %9, align 4
  %33 = add i32 %32, 4
  store i32 %33, ptr %9, align 4
  %34 = load ptr, ptr %10, align 8
  %35 = load i32, ptr @hf_ulmap_fast_tracking_length, align 4
  %36 = load ptr, ptr %8, align 8
  %37 = load i32, ptr %9, align 4
  %38 = call ptr @proto_tree_add_bits_item(ptr noundef %34, i32 noundef %35, ptr noundef %36, i32 noundef %37, i32 noundef 4, i32 noundef 0)
  %39 = load i32, ptr %9, align 4
  %40 = add i32 %39, 4
  store i32 %40, ptr %9, align 4
  %41 = load ptr, ptr %10, align 8
  %42 = load i32, ptr @hf_ulmap_fast_tracking_map_index, align 4
  %43 = load ptr, ptr %8, align 8
  %44 = load i32, ptr %9, align 4
  %45 = call ptr @proto_tree_add_bits_item(ptr noundef %41, i32 noundef %42, ptr noundef %43, i32 noundef %44, i32 noundef 2, i32 noundef 0)
  %46 = load i32, ptr %9, align 4
  %47 = add i32 %46, 2
  store i32 %47, ptr %9, align 4
  %48 = load ptr, ptr %10, align 8
  %49 = load i32, ptr @hf_ulmap_reserved_uint, align 4
  %50 = load ptr, ptr %8, align 8
  %51 = load i32, ptr %9, align 4
  %52 = call ptr @proto_tree_add_bits_item(ptr noundef %48, i32 noundef %49, ptr noundef %50, i32 noundef %51, i32 noundef 6, i32 noundef 0)
  %53 = load i32, ptr %9, align 4
  %54 = add i32 %53, 6
  store i32 %54, ptr %9, align 4
  br label %55

55:                                               ; preds = %60, %4
  %56 = load i32, ptr %9, align 4
  %57 = load i32, ptr %7, align 4
  %58 = sub i32 %57, 7
  %59 = icmp slt i32 %56, %58
  br i1 %59, label %60, label %82

60:                                               ; preds = %55
  %61 = load ptr, ptr %10, align 8
  %62 = load i32, ptr @hf_ulmap_fast_tracking_power_correction, align 4
  %63 = load ptr, ptr %8, align 8
  %64 = load i32, ptr %9, align 4
  %65 = call ptr @proto_tree_add_bits_item(ptr noundef %61, i32 noundef %62, ptr noundef %63, i32 noundef %64, i32 noundef 3, i32 noundef 0)
  %66 = load i32, ptr %9, align 4
  %67 = add i32 %66, 3
  store i32 %67, ptr %9, align 4
  %68 = load ptr, ptr %10, align 8
  %69 = load i32, ptr @hf_ulmap_fast_tracking_frequency_correction, align 4
  %70 = load ptr, ptr %8, align 8
  %71 = load i32, ptr %9, align 4
  %72 = call ptr @proto_tree_add_bits_item(ptr noundef %68, i32 noundef %69, ptr noundef %70, i32 noundef %71, i32 noundef 3, i32 noundef 0)
  %73 = load i32, ptr %9, align 4
  %74 = add i32 %73, 3
  store i32 %74, ptr %9, align 4
  %75 = load ptr, ptr %10, align 8
  %76 = load i32, ptr @hf_ulmap_fast_tracking_time_correction, align 4
  %77 = load ptr, ptr %8, align 8
  %78 = load i32, ptr %9, align 4
  %79 = call ptr @proto_tree_add_bits_item(ptr noundef %75, i32 noundef %76, ptr noundef %77, i32 noundef %78, i32 noundef 2, i32 noundef 0)
  %80 = load i32, ptr %9, align 4
  %81 = add i32 %80, 2
  store i32 %81, ptr %9, align 4
  br label %55, !llvm.loop !19

82:                                               ; preds = %55
  %83 = load i32, ptr %9, align 4
  %84 = sdiv i32 %83, 4
  call void @llvm.lifetime.end.p0(i64 8, ptr %10) #5
  call void @llvm.lifetime.end.p0(i64 4, ptr %9) #5
  ret i32 %84
}