; Function Attrs: null_pointer_is_valid sspstrong uwtable
define internal fastcc range(i32 0, 536870912) i32 @ULMAP_Fast_Tracking_IE(ptr noundef %0, i32 noundef %1, i32 noundef range(i32 2, 33) %2, ptr noundef %3) unnamed_addr #1 {
  %5 = shl i32 %1, 2
  %6 = sdiv i32 %1, 2
  %7 = and i32 %1, 1
  %8 = add nuw nsw i32 %7, 1
  %9 = add nuw nsw i32 %8, %2
  %10 = lshr i32 %9, 1
  %11 = load i32, ptr @ett_302h, align 4
  %12 = tail call ptr @proto_tree_add_subtree(ptr noundef %0, ptr noundef %3, i32 noundef %6, i32 noundef %10, i32 noundef %11, ptr noundef null, ptr noundef nonnull @.str.554)
  %13 = shl nuw nsw i32 %2, 2
  %14 = load i32, ptr @hf_ulmap_fast_tracking_extended_uiuc, align 4
  %15 = tail call ptr @proto_tree_add_bits_item(ptr noundef %12, i32 noundef %14, ptr noundef %3, i32 noundef %5, i32 noundef 4, i32 noundef 0)
  %16 = add i32 %5, 4
  %17 = load i32, ptr @hf_ulmap_fast_tracking_length, align 4
  %18 = tail call ptr @proto_tree_add_bits_item(ptr noundef %12, i32 noundef %17, ptr noundef %3, i32 noundef %16, i32 noundef 4, i32 noundef 0)
  %19 = add i32 %5, 8
  %20 = load i32, ptr @hf_ulmap_fast_tracking_map_index, align 4
  %21 = tail call ptr @proto_tree_add_bits_item(ptr noundef %12, i32 noundef %20, ptr noundef %3, i32 noundef %19, i32 noundef 2, i32 noundef 0)
  %22 = add i32 %5, 10
  %23 = load i32, ptr @hf_ulmap_reserved_uint, align 4
  %24 = tail call ptr @proto_tree_add_bits_item(ptr noundef %12, i32 noundef %23, ptr noundef %3, i32 noundef %22, i32 noundef 6, i32 noundef 0)
  %25 = add i32 %5, 16
  %26 = add nsw i32 %13, -7
  %27 = icmp slt i32 %25, %26
  br i1 %27, label %.lr.ph, label %._crit_edge

.lr.ph:                                           ; preds = %4, %.lr.ph
  %.037 = phi i32 [ %36, %.lr.ph ], [ %25, %4 ]
  %28 = load i32, ptr @hf_ulmap_fast_tracking_power_correction, align 4
  %29 = tail call ptr @proto_tree_add_bits_item(ptr noundef %12, i32 noundef %28, ptr noundef %3, i32 noundef %.037, i32 noundef 3, i32 noundef 0)
  %30 = or disjoint i32 %.037, 3
  %31 = load i32, ptr @hf_ulmap_fast_tracking_frequency_correction, align 4
  %32 = tail call ptr @proto_tree_add_bits_item(ptr noundef %12, i32 noundef %31, ptr noundef %3, i32 noundef %30, i32 noundef 3, i32 noundef 0)
  %33 = add nsw i32 %.037, 6
  %34 = load i32, ptr @hf_ulmap_fast_tracking_time_correction, align 4
  %35 = tail call ptr @proto_tree_add_bits_item(ptr noundef %12, i32 noundef %34, ptr noundef %3, i32 noundef %33, i32 noundef 2, i32 noundef 0)
  %36 = add nsw i32 %.037, 8
  %37 = icmp slt i32 %36, %26
  br i1 %37, label %.lr.ph, label %._crit_edge, !llvm.loop !22

._crit_edge:                                      ; preds = %.lr.ph, %4
  %.0.lcssa = phi i32 [ %25, %4 ], [ %36, %.lr.ph ]
  %38 = lshr exact i32 %.0.lcssa, 2
  ret i32 %38
}